(lp0
(lp1
F0.9887108206748962
aF0.6434871554374695
aI0
aI0
aa(lp2
F1.1252059936523438
aF0.6445755958557129
aI0
aI0
aa(lp3
F1.2503578662872314
aF0.6566787958145142
aI0
aI0
aa(lp4
F8.42909049987793
aF0.6534404158592224
aI0
aI0
aa(lp5
F1.1812409162521362
aF0.6669284701347351
aI0
aI0
aa(lp6
F0.9064914584159851
aF0.6612635850906372
aI0
aI0
aa(lp7
F4.691107749938965
aF0.674732506275177
aI0
aI0
aa(lp8
F0.9803575277328491
aF0.6768739819526672
aI0
aI0
aa(lp9
F1.0476731061935425
aF0.6794931292533875
aI0
aI0
aa(lp10
F4.692192554473877
aF0.6835803985595703
aI0
aI0
aa(lp11
F21.92607307434082
aF0.8172585964202881
aI0
aI0
aa(lp12
F31.58095932006836
aF0.875544548034668
aI0
aI0
aa(lp13
F20.74644660949707
aF0.8673761487007141
aI0
aI0
aa(lp14
F12.98766803741455
aF0.8474512696266174
aI0
aI0
aa(lp15
F24.504343032836914
aF0.8853253722190857
aI0
aI0
aa(lp16
F23.86566162109375
aF0.8735259175300598
aI0
aI0
aa(lp17
F24.50345230102539
aF0.8716673851013184
aI0
aI0
aa(lp18
F32.36470413208008
aF0.9262635111808777
aI0
aI0
aa(lp19
F18.253122329711914
aF0.8979954719543457
aI0
aI0
aa(lp20
F13.679122924804688
aF0.8674509525299072
aI0
aI0
aa(lp21
F43.85029602050781
aF1.001266360282898
aI0
aI2
aa(lp22
F26.886341094970703
aF0.9750778079032898
aI0
aI2
aa(lp23
F33.76699447631836
aF1.029257893562317
aI0
aI2
aa(lp24
F35.43837356567383
aF1.0222395658493042
aI0
aI2
aa(lp25
F31.256893157958984
aF1.0431352853775024
aI0
aI2
aa(lp26
F21.27877426147461
aF1.012225866317749
aI0
aI2
aa(lp27
F27.431142807006836
aF1.0837414264678955
aI0
aI2
aa(lp28
F33.29730224609375
aF1.045992374420166
aI0
aI2
aa(lp29
F29.625879287719727
aF1.0593558549880981
aI0
aI2
aa(lp30
F23.061189651489258
aF1.0874789953231812
aI0
aI2
aa(lp31
F25.963233947753906
aF1.0637493133544922
aI0
aI6
aa(lp32
F34.630741119384766
aF1.0826141834259033
aI0
aI6
aa(lp33
F28.489259719848633
aF1.093284249305725
aI0
aI6
aa(lp34
F31.639799118041992
aF1.1411751508712769
aI0
aI6
aa(lp35
F37.941776275634766
aF1.1019628047943115
aI0
aI6
aa(lp36
F45.4051399230957
aF1.1409908533096313
aI0
aI6
aa(lp37
F37.1540412902832
aF1.1648917198181152
aI0
aI6
aa(lp38
F36.514732360839844
aF1.1905988454818726
aI0
aI6
aa(lp39
F33.70112609863281
aF1.1892608404159546
aI0
aI6
aa(lp40
F31.321821212768555
aF1.1825358867645264
aI0
aI6
aa(lp41
F26.53072166442871
aF1.0923311710357666
aI1
aI4
aa(lp42
F26.47541618347168
aF1.1555625200271606
aI1
aI4
aa(lp43
F1451.6788330078125
aF1.1595503091812134
aI1
aI4
aa(lp44
F35.671939849853516
aF1.0970255136489868
aI1
aI4
aa(lp45
F28.66072654724121
aF1.1435929536819458
aI1
aI4
aa(lp46
F49.824317932128906
aF1.1327813863754272
aI1
aI4
aa(lp47
F21.196821212768555
aF1.1326544284820557
aI1
aI4
aa(lp48
F73.52243041992188
aF1.1888234615325928
aI1
aI4
aa(lp49
F33.13004684448242
aF1.1672166585922241
aI1
aI4
aa(lp50
F25.825040817260742
aF1.1562553644180298
aI1
aI4
aa.